; ModuleID = '24/2696.c'
source_filename = "24/2696.c"
target datalayout = "e-m:e-p270:32:32-p271:32:32-p272:64:64-i64:64-f80:128-n8:16:32:64-S128"
target triple = "x86_64-pc-linux-gnu"

@N = dso_local constant i32 1000, align 4
@.str = private unnamed_addr constant [3 x i8] c"%d\00", align 1
@.str.1 = private unnamed_addr constant [3 x i8] c"%s\00", align 1
@.str.2 = private unnamed_addr constant [7 x i8] c"%s\0A%s\0A\00", align 1

; Function Attrs: noinline nounwind uwtable
define dso_local i32 @main() #0 {
  %1 = alloca i32, align 4
  %2 = alloca [1000 x i8], align 16
  %3 = alloca [1000 x i8], align 16
  %4 = alloca [1000 x i8], align 16
  %5 = alloca i32, align 4
  %6 = alloca i32, align 4
  %7 = alloca i32, align 4
  %8 = alloca i32, align 4
  store i32 0, i32* %1, align 4
  store i32 0, i32* %5, align 4
  store i32 1000, i32* %6, align 4
  %9 = call i32 (i8*, ...) @__isoc99_scanf(i8* getelementptr inbounds ([3 x i8], [3 x i8]* @.str, i64 0, i64 0), i32* %7)
  br label %10

10:                                               ; preds = %37, %0
  %11 = load i32, i32* %7, align 4
  %12 = add nsw i32 %11, -1
  store i32 %12, i32* %7, align 4
  %13 = icmp sgt i32 %11, 0
  br i1 %13, label %14, label %38

14:                                               ; preds = %10
  %15 = getelementptr inbounds [1000 x i8], [1000 x i8]* %2, i64 0, i64 0
  %16 = call i32 (i8*, ...) @__isoc99_scanf(i8* getelementptr inbounds ([3 x i8], [3 x i8]* @.str.1, i64 0, i64 0), i8* %15)
  %17 = getelementptr inbounds [1000 x i8], [1000 x i8]* %2, i64 0, i64 0
  %18 = call i64 @strlen(i8* %17) #4
  %19 = trunc i64 %18 to i32
  store i32 %19, i32* %8, align 4
  %20 = load i32, i32* %8, align 4
  %21 = load i32, i32* %5, align 4
  %22 = icmp sgt i32 %20, %21
  br i1 %22, label %23, label %28

23:                                               ; preds = %14
  %24 = load i32, i32* %8, align 4
  store i32 %24, i32* %5, align 4
  %25 = getelementptr inbounds [1000 x i8], [1000 x i8]* %3, i64 0, i64 0
  %26 = getelementptr inbounds [1000 x i8], [1000 x i8]* %2, i64 0, i64 0
  %27 = call i8* @strcpy(i8* %25, i8* %26) #5
  br label %28

28:                                               ; preds = %23, %14
  %29 = load i32, i32* %8, align 4
  %30 = load i32, i32* %6, align 4
  %31 = icmp slt i32 %29, %30
  br i1 %31, label %32, label %37

32:                                               ; preds = %28
  %33 = load i32, i32* %8, align 4
  store i32 %33, i32* %6, align 4
  %34 = getelementptr inbounds [1000 x i8], [1000 x i8]* %4, i64 0, i64 0
  %35 = getelementptr inbounds [1000 x i8], [1000 x i8]* %2, i64 0, i64 0
  %36 = call i8* @strcpy(i8* %34, i8* %35) #5
  br label %37

37:                                               ; preds = %32, %28
  br label %10

38:                                               ; preds = %10
  %39 = getelementptr inbounds [1000 x i8], [1000 x i8]* %3, i64 0, i64 0
  %40 = getelementptr inbounds [1000 x i8], [1000 x i8]* %4, i64 0, i64 0
  %41 = call i32 (i8*, ...) @printf(i8* getelementptr inbounds ([7 x i8], [7 x i8]* @.str.2, i64 0, i64 0), i8* %39, i8* %40)
  %42 = load i32, i32* %1, align 4
  ret i32 %42
}

declare dso_local i32 @__isoc99_scanf(i8*, ...) #1

; Function Attrs: nounwind readonly
declare dso_local i64 @strlen(i8*) #2

; Function Attrs: nounwind
declare dso_local i8* @strcpy(i8*, i8*) #3

declare dso_local i32 @printf(i8*, ...) #1


!llvm.module.flags = !{!0}
!llvm.ident = !{!1}

!0 = !{i32 1, !"wchar_size", i32 4}
!1 = !{!"clang version 10.0.0-4ubuntu1 "}
